; Function Attrs: nounwind sspstrong uwtable
define internal i64 @ossl_x509ext_set_value(i64 noundef %0, i64 noundef %1) #0 {
  %3 = alloca i64, align 8
  %4 = tail call ptr @rb_check_typeddata(i64 noundef %0, ptr noundef nonnull @ossl_x509ext_type) #5
  %.not = icmp eq ptr %4, null
  br i1 %.not, label %5, label %7

5:                                                ; preds = %2
  %6 = load i64, ptr @rb_eRuntimeError, align 8, !tbaa !6
  tail call void (i64, ptr, ...) @ossl_raise(i64 noundef %6, ptr noundef nonnull @.str) #6
  unreachable

7:                                                ; preds = %2
  %8 = tail call i64 @ossl_to_der_if_possible(i64 noundef %1) #5
  store i64 %8, ptr %3, align 8, !tbaa !6
  %9 = call i64 @rb_string_value(ptr noundef nonnull %3) #5
  %10 = call ptr @X509_EXTENSION_get_data(ptr noundef nonnull %4) #5
  %11 = load i64, ptr %3, align 8, !tbaa !6
  %12 = inttoptr i64 %11 to ptr
  %13 = load i64, ptr %12, align 8, !tbaa !31, !noalias !51
  %14 = and i64 %13, 8192
  %.not.i.i = icmp eq i64 %14, 0
  %15 = getelementptr inbounds nuw i8, ptr %12, i64 24
  br i1 %.not.i.i, label %RSTRING_PTR.exit, label %16

16:                                               ; preds = %7
  %.sroa.2.0.copyload.i = load ptr, ptr %15, align 8
  br label %RSTRING_PTR.exit

RSTRING_PTR.exit:                                 ; preds = %7, %16
  %.sroa.2.0.i = phi ptr [ %.sroa.2.0.copyload.i, %16 ], [ %15, %7 ]
  %17 = getelementptr inbounds nuw i8, ptr %12, i64 16
  %18 = load i64, ptr %17, align 8, !tbaa !43
  %19 = add i64 %18, 2147483648
  %.not.i.i4 = icmp ult i64 %19, 4294967296
  br i1 %.not.i.i4, label %RSTRING_LENINT.exit, label %20

20:                                               ; preds = %RSTRING_PTR.exit
  call void @rb_out_of_int(i64 noundef %18) #7
  unreachable

RSTRING_LENINT.exit:                              ; preds = %RSTRING_PTR.exit
  %21 = trunc i64 %18 to i32
  %22 = call i32 @ASN1_OCTET_STRING_set(ptr noundef %10, ptr noundef %.sroa.2.0.i, i32 noundef %21) #5
  %.not3 = icmp eq i32 %22, 0
  br i1 %.not3, label %23, label %25

23:                                               ; preds = %RSTRING_LENINT.exit
  %24 = load i64, ptr @eX509ExtError, align 8, !tbaa !6
  call void (i64, ptr, ...) @ossl_raise(i64 noundef %24, ptr noundef nonnull @.str.45) #6
  unreachable

25:                                               ; preds = %RSTRING_LENINT.exit
  %26 = load i64, ptr %3, align 8, !tbaa !6
  ret i64 %26
}